; Function Attrs: nounwind uwtable
define void @zend_clear_exception() local_unnamed_addr #0 {
  %1 = load ptr, ptr getelementptr inbounds (%struct._zend_executor_globals, ptr @executor_globals, i64 0, i32 51), align 8
  %.not = icmp eq ptr %1, null
  br i1 %.not, label %15, label %2

2:                                                ; preds = %0
  %3 = load i32, ptr %1, align 4
  %4 = icmp ne i32 %3, 0
  tail call void @llvm.assume(i1 %4)
  %5 = add i32 %3, -1
  store i32 %5, ptr %1, align 4
  %6 = icmp eq i32 %5, 0
  br i1 %6, label %7, label %8

7:                                                ; preds = %2
  tail call void @zend_objects_store_del(ptr noundef nonnull %1) #15
  br label %14

8:                                                ; preds = %2
  %9 = getelementptr inbounds i8, ptr %1, i64 4
  %10 = load i32, ptr %9, align 4
  %11 = and i32 %10, -1008
  %12 = icmp eq i32 %11, 0
  br i1 %12, label %13, label %14

13:                                               ; preds = %8
  tail call void @gc_possible_root(ptr noundef nonnull %1) #15
  br label %14

14:                                               ; preds = %8, %13, %7
  store ptr null, ptr getelementptr inbounds (%struct._zend_executor_globals, ptr @executor_globals, i64 0, i32 51), align 8
  br label %15

15:                                               ; preds = %14, %0
  %16 = load ptr, ptr getelementptr inbounds (%struct._zend_executor_globals, ptr @executor_globals, i64 0, i32 50), align 8
  %.not15 = icmp eq ptr %16, null
  br i1 %.not15, label %33, label %17

17:                                               ; preds = %15
  store ptr null, ptr getelementptr inbounds (%struct._zend_executor_globals, ptr @executor_globals, i64 0, i32 50), align 8
  %18 = load i32, ptr %16, align 4
  %19 = icmp ne i32 %18, 0
  tail call void @llvm.assume(i1 %19)
  %20 = add i32 %18, -1
  store i32 %20, ptr %16, align 4
  %21 = icmp eq i32 %20, 0
  br i1 %21, label %22, label %23

22:                                               ; preds = %17
  tail call void @zend_objects_store_del(ptr noundef nonnull %16) #15
  br label %29

23:                                               ; preds = %17
  %24 = getelementptr inbounds i8, ptr %16, i64 4
  %25 = load i32, ptr %24, align 4
  %26 = and i32 %25, -1008
  %27 = icmp eq i32 %26, 0
  br i1 %27, label %28, label %29

28:                                               ; preds = %23
  tail call void @gc_possible_root(ptr noundef nonnull %16) #15
  br label %29

29:                                               ; preds = %23, %28, %22
  %30 = load ptr, ptr getelementptr inbounds (%struct._zend_executor_globals, ptr @executor_globals, i64 0, i32 17), align 8
  %.not16 = icmp eq ptr %30, null
  br i1 %.not16, label %33, label %31

31:                                               ; preds = %29
  %32 = load ptr, ptr getelementptr inbounds (%struct._zend_executor_globals, ptr @executor_globals, i64 0, i32 52), align 8
  store ptr %32, ptr %30, align 8
  br label %33

33:                                               ; preds = %15, %31, %29
  ret void
}